; Function Attrs: mustprogress nofree norecurse nosync nounwind willreturn memory(argmem: write) uwtable
define hidden void @python_hashlib_Hacl_Hash_SHA1_init(ptr noundef writeonly captures(none) initializes((0, 20)) %0) local_unnamed_addr #0 {
  store i32 1732584193, ptr %0, align 4, !tbaa !3
  %2 = getelementptr i8, ptr %0, i64 4
  store i32 -271733879, ptr %2, align 4, !tbaa !3
  %3 = getelementptr i8, ptr %0, i64 8
  store i32 -1732584194, ptr %3, align 4, !tbaa !3
  %4 = getelementptr i8, ptr %0, i64 12
  store i32 271733878, ptr %4, align 4, !tbaa !3
  %5 = getelementptr i8, ptr %0, i64 16
  store i32 -1009589776, ptr %5, align 4, !tbaa !3
  ret void
}